target datalayout = "e-m:e-p270:32:32-p271:32:32-p272:64:64-i64:64-i128:128-f80:128-n8:16:32:64-S128"
target triple = "x86_64-unknown-linux-gnu"

%"class.std::__cxx11::basic_string" = type { %"struct.std::__cxx11::basic_string<char>::_Alloc_hider", i64, %union.anon }
%"struct.std::__cxx11::basic_string<char>::_Alloc_hider" = type { ptr }
%union.anon = type { i64, [8 x i8] }
%"class.std::allocator" = type { i8 }
%"class.std::__cxx11::basic_ostringstream" = type { %"class.std::basic_ostream.base", %"class.std::__cxx11::basic_stringbuf", %"class.std::basic_ios" }
%"class.std::basic_ostream.base" = type { ptr }
%"class.std::__cxx11::basic_stringbuf" = type { %"class.std::basic_streambuf", i32, %"class.std::__cxx11::basic_string" }
%"class.std::basic_streambuf" = type { ptr, ptr, ptr, ptr, ptr, ptr, ptr, %"class.std::locale" }
%"class.std::locale" = type { ptr }
%"class.std::basic_ios" = type { %"class.std::ios_base", ptr, i8, i8, ptr, ptr, ptr, ptr }
%"class.std::ios_base" = type { ptr, i64, i64, i32, i32, i32, ptr, %"struct.std::ios_base::_Words", [8 x %"struct.std::ios_base::_Words"], i32, ptr, %"class.std::locale" }
%"struct.std::ios_base::_Words" = type { ptr, i64 }

@.str.4 = private unnamed_addr constant [6 x i8] c"\22NaN\22\00", align 1
@.str.5 = private unnamed_addr constant [12 x i8] c"\22-Infinity\22\00", align 1
@.str.6 = private unnamed_addr constant [11 x i8] c"\22Infinity\22\00", align 1
@.str.7 = private unnamed_addr constant [2 x i8] c"0\00", align 1
@.str.8 = private unnamed_addr constant [50 x i8] c"basic_string: construction from null is not valid\00", align 1

; Function Attrs: mustprogress nounwind uwtable
define linkonce_odr dso_local noundef i64 @_ZNSt11char_traitsIcE6lengthEPKc(ptr noundef %__s) #0 comdat align 2 {
entry:
  %__s.addr = alloca ptr, align 8
  store ptr %__s, ptr %__s.addr, align 8
  %0 = load ptr, ptr %__s.addr, align 8
  %call = call i64 @strlen(ptr noundef %0) #9
  ret i64 %call
}

; Function Attrs: mustprogress nounwind uwtable
define linkonce_odr dso_local void @_ZNSt7__cxx1112basic_stringIcSt11char_traitsIcESaIcEEC2IS3_EEPKcRKS3_(ptr noundef nonnull align 8 dereferenceable(32) %this, ptr noundef %__s, ptr noundef nonnull align 1 dereferenceable(1) %__a) unnamed_addr #0 comdat align 2 {
entry:
  %this.addr = alloca ptr, align 8
  %__s.addr = alloca ptr, align 8
  %__a.addr = alloca ptr, align 8
  %__end = alloca ptr, align 8
  store ptr %this, ptr %this.addr, align 8
  store ptr %__s, ptr %__s.addr, align 8
  store ptr %__a, ptr %__a.addr, align 8
  %this1 = load ptr, ptr %this.addr, align 8
  %_M_dataplus = getelementptr inbounds %"class.std::__cxx11::basic_string", ptr %this1, i32 0, i32 0
  %call = call noundef ptr @_ZNSt7__cxx1112basic_stringIcSt11char_traitsIcESaIcEE13_M_local_dataEv(ptr noundef nonnull align 8 dereferenceable(32) %this1)
  %0 = load ptr, ptr %__a.addr, align 8
  call void @_ZNSt7__cxx1112basic_stringIcSt11char_traitsIcESaIcEE12_Alloc_hiderC1EPcRKS3_(ptr noundef nonnull align 8 dereferenceable(8) %_M_dataplus, ptr noundef %call, ptr noundef nonnull align 1 dereferenceable(1) %0)
  %1 = load ptr, ptr %__s.addr, align 8
  %cmp = icmp eq ptr %1, null
  br i1 %cmp, label %if.then, label %if.end

if.then:                                          ; preds = %entry
  call void @_ZSt19__throw_logic_errorPKc(ptr noundef @.str.8) #14
  unreachable

if.end:                                           ; preds = %entry
  %2 = load ptr, ptr %__s.addr, align 8
  %3 = load ptr, ptr %__s.addr, align 8
  %call2 = call noundef i64 @_ZNSt11char_traitsIcE6lengthEPKc(ptr noundef %3)
  %add.ptr = getelementptr inbounds i8, ptr %2, i64 %call2
  store ptr %add.ptr, ptr %__end, align 8
  %4 = load ptr, ptr %__s.addr, align 8
  %5 = load ptr, ptr %__end, align 8
  call void @_ZNSt7__cxx1112basic_stringIcSt11char_traitsIcESaIcEE12_M_constructIPKcEEvT_S8_St20forward_iterator_tag(ptr noundef nonnull align 8 dereferenceable(32) %this1, ptr noundef %4, ptr noundef %5)
  ret void
}

; Function Attrs: mustprogress nounwind uwtable
define linkonce_odr dso_local noundef i32 @_ZSt10fpclassifyd(double noundef %__x) #0 comdat {
entry:
  %__x.addr = alloca double, align 8
  store double %__x, ptr %__x.addr, align 8
  %0 = load double, ptr %__x.addr, align 8
  %iszero = fcmp oeq double %0, 0.000000e+00
  br i1 %iszero, label %fpclassify_end, label %fpclassify_not_zero

fpclassify_end:                                   ; preds = %fpclassify_not_inf, %fpclassify_not_nan, %fpclassify_not_zero, %entry
  %fpclassify_result = phi i32 [ 2, %entry ], [ 0, %fpclassify_not_zero ], [ 1, %fpclassify_not_nan ], [ %2, %fpclassify_not_inf ]
  ret i32 %fpclassify_result

fpclassify_not_zero:                              ; preds = %entry
  %cmp = fcmp uno double %0, %0
  br i1 %cmp, label %fpclassify_end, label %fpclassify_not_nan

fpclassify_not_nan:                               ; preds = %fpclassify_not_zero
  %1 = call double @llvm.fabs.f64(double %0) #13
  %isinf = fcmp oeq double %1, 0x7FF0000000000000
  br i1 %isinf, label %fpclassify_end, label %fpclassify_not_inf

fpclassify_not_inf:                               ; preds = %fpclassify_not_nan
  %isnormal = fcmp uge double %1, 0x10000000000000
  %2 = select i1 %isnormal, i32 4, i32 3
  br label %fpclassify_end
}

; Function Attrs: mustprogress nounwind uwtable
define internal void @_ZN4node7tracing12_GLOBAL__N_115DoubleToCStringB5cxx11Ed(ptr noalias sret(%"class.std::__cxx11::basic_string") align 8 %agg.result, double noundef %v) #0 {
entry:
  %result.ptr = alloca ptr, align 8
  %v.addr = alloca double, align 8
  %ref.tmp = alloca %"class.std::allocator", align 1
  %ref.tmp2 = alloca %"class.std::allocator", align 1
  %ref.tmp4 = alloca %"class.std::allocator", align 1
  %stream = alloca %"class.std::__cxx11::basic_ostringstream", align 8
  %agg.tmp.ensured = alloca %"class.std::locale", align 8
  store ptr %agg.result, ptr %result.ptr, align 8
  store double %v, ptr %v.addr, align 8
  %0 = load double, ptr %v.addr, align 8
  %call = call noundef i32 @_ZSt10fpclassifyd(double noundef %0)
  switch i32 %call, label %sw.default [
    i32 0, label %sw.bb
    i32 1, label %sw.bb1
    i32 2, label %sw.bb3
  ]

sw.bb:                                            ; preds = %entry
  call void @_ZNSaIcEC1Ev(ptr noundef nonnull align 1 dereferenceable(1) %ref.tmp) #9
  call void @_ZNSt7__cxx1112basic_stringIcSt11char_traitsIcESaIcEEC2IS3_EEPKcRKS3_(ptr noundef nonnull align 8 dereferenceable(32) %agg.result, ptr noundef @.str.4, ptr noundef nonnull align 1 dereferenceable(1) %ref.tmp)
  call void @_ZNSaIcED1Ev(ptr noundef nonnull align 1 dereferenceable(1) %ref.tmp) #9
  br label %return

sw.bb1:                                           ; preds = %entry
  %1 = load double, ptr %v.addr, align 8
  %cmp = fcmp olt double %1, 0.000000e+00
  %cond = select i1 %cmp, ptr @.str.5, ptr @.str.6
  call void @_ZNSaIcEC1Ev(ptr noundef nonnull align 1 dereferenceable(1) %ref.tmp2) #9
  call void @_ZNSt7__cxx1112basic_stringIcSt11char_traitsIcESaIcEEC2IS3_EEPKcRKS3_(ptr noundef nonnull align 8 dereferenceable(32) %agg.result, ptr noundef %cond, ptr noundef nonnull align 1 dereferenceable(1) %ref.tmp2)
  call void @_ZNSaIcED1Ev(ptr noundef nonnull align 1 dereferenceable(1) %ref.tmp2) #9
  br label %return

sw.bb3:                                           ; preds = %entry
  call void @_ZNSaIcEC1Ev(ptr noundef nonnull align 1 dereferenceable(1) %ref.tmp4) #9
  call void @_ZNSt7__cxx1112basic_stringIcSt11char_traitsIcESaIcEEC2IS3_EEPKcRKS3_(ptr noundef nonnull align 8 dereferenceable(32) %agg.result, ptr noundef @.str.7, ptr noundef nonnull align 1 dereferenceable(1) %ref.tmp4)
  call void @_ZNSaIcED1Ev(ptr noundef nonnull align 1 dereferenceable(1) %ref.tmp4) #9
  br label %return

sw.default:                                       ; preds = %entry
  call void @_ZNSt7__cxx1119basic_ostringstreamIcSt11char_traitsIcESaIcEEC1Ev(ptr noundef nonnull align 8 dereferenceable(112) %stream)
  %vtable = load ptr, ptr %stream, align 8
  %vbase.offset.ptr = getelementptr i8, ptr %vtable, i64 -24
  %vbase.offset = load i64, ptr %vbase.offset.ptr, align 8
  %add.ptr = getelementptr inbounds i8, ptr %stream, i64 %vbase.offset
  %call5 = call noundef nonnull align 8 dereferenceable(8) ptr @_ZNSt6locale7classicEv()
  call void @_ZNSt9basic_iosIcSt11char_traitsIcEE5imbueERKSt6locale(ptr sret(%"class.std::locale") align 8 %agg.tmp.ensured, ptr noundef nonnull align 8 dereferenceable(264) %add.ptr, ptr noundef nonnull align 8 dereferenceable(8) %call5)
  call void @_ZNSt6localeD1Ev(ptr noundef nonnull align 8 dereferenceable(8) %agg.tmp.ensured) #9
  %2 = load double, ptr %v.addr, align 8
  %call6 = call noundef nonnull align 8 dereferenceable(8) ptr @_ZNSolsEd(ptr noundef nonnull align 8 dereferenceable(8) %stream, double noundef %2)
  call void @_ZNKSt7__cxx1119basic_ostringstreamIcSt11char_traitsIcESaIcEE3strEv(ptr sret(%"class.std::__cxx11::basic_string") align 8 %agg.result, ptr noundef nonnull align 8 dereferenceable(112) %stream)
  call void @_ZNSt7__cxx1119basic_ostringstreamIcSt11char_traitsIcESaIcEED1Ev(ptr noundef nonnull align 8 dereferenceable(112) %stream) #9
  br label %return

return:                                           ; preds = %sw.default, %sw.bb3, %sw.bb1, %sw.bb
  ret void
}