; Function Attrs: mustprogress nounwind uwtable
define internal fastcc void @_ZN4node7tracing12_GLOBAL__N_115DoubleToCStringB5cxx11Ed(ptr noalias align 8 %agg.result, double noundef %v) unnamed_addr #0 {
entry:
  %ref.tmp = alloca %"class.std::allocator", align 1
  %ref.tmp2 = alloca %"class.std::allocator", align 1
  %ref.tmp4 = alloca %"class.std::allocator", align 1
  %stream = alloca %"class.std::__cxx11::basic_ostringstream", align 8
  %agg.tmp.ensured = alloca %"class.std::locale", align 8
  %iszero.i = fcmp oeq double %v, 0.000000e+00
  br i1 %iszero.i, label %sw.bb3, label %fpclassify_not_zero.i

fpclassify_not_zero.i:                            ; preds = %entry
  %cmp.i = fcmp uno double %v, 0.000000e+00
  br i1 %cmp.i, label %sw.bb, label %fpclassify_not_nan.i

fpclassify_not_nan.i:                             ; preds = %fpclassify_not_zero.i
  %0 = tail call double @llvm.fabs.f64(double %v) #11
  %isinf.i = fcmp oeq double %0, 0x7FF0000000000000
  br i1 %isinf.i, label %sw.bb1, label %sw.default

sw.bb:                                            ; preds = %fpclassify_not_zero.i
  call void @_ZNSaIcEC1Ev(ptr noundef nonnull align 1 dereferenceable(1) %ref.tmp) #10
  %call.i = call noundef ptr @_ZNSt7__cxx1112basic_stringIcSt11char_traitsIcESaIcEE13_M_local_dataEv(ptr noundef nonnull align 8 dereferenceable(32) %agg.result) #10
  call void @_ZNSt7__cxx1112basic_stringIcSt11char_traitsIcESaIcEE12_Alloc_hiderC1EPcRKS3_(ptr noundef nonnull align 8 dereferenceable(8) %agg.result, ptr noundef %call.i, ptr noundef nonnull align 1 dereferenceable(1) %ref.tmp) #10
  call void @_ZNSt7__cxx1112basic_stringIcSt11char_traitsIcESaIcEE12_M_constructIPKcEEvT_S8_St20forward_iterator_tag(ptr noundef nonnull align 8 dereferenceable(32) %agg.result, ptr noundef nonnull @.str.4, ptr noundef nonnull getelementptr inbounds ([6 x i8], ptr @.str.4, i64 0, i64 5))
  call void @_ZNSaIcED1Ev(ptr noundef nonnull align 1 dereferenceable(1) %ref.tmp) #10
  br label %return

sw.bb1:                                           ; preds = %fpclassify_not_nan.i
  %cmp = fcmp olt double %v, 0.000000e+00
  %cond = select i1 %cmp, ptr @.str.5, ptr @.str.6
  call void @_ZNSaIcEC1Ev(ptr noundef nonnull align 1 dereferenceable(1) %ref.tmp2) #10
  %call.i3 = call noundef ptr @_ZNSt7__cxx1112basic_stringIcSt11char_traitsIcESaIcEE13_M_local_dataEv(ptr noundef nonnull align 8 dereferenceable(32) %agg.result) #10
  call void @_ZNSt7__cxx1112basic_stringIcSt11char_traitsIcESaIcEE12_Alloc_hiderC1EPcRKS3_(ptr noundef nonnull align 8 dereferenceable(8) %agg.result, ptr noundef %call.i3, ptr noundef nonnull align 1 dereferenceable(1) %ref.tmp2) #10
  %call.i.i4 = select i1 %cmp, i64 11, i64 10
  %add.ptr.i5 = getelementptr inbounds i8, ptr %cond, i64 %call.i.i4
  call void @_ZNSt7__cxx1112basic_stringIcSt11char_traitsIcESaIcEE12_M_constructIPKcEEvT_S8_St20forward_iterator_tag(ptr noundef nonnull align 8 dereferenceable(32) %agg.result, ptr noundef nonnull %cond, ptr noundef nonnull %add.ptr.i5)
  call void @_ZNSaIcED1Ev(ptr noundef nonnull align 1 dereferenceable(1) %ref.tmp2) #10
  br label %return

sw.bb3:                                           ; preds = %entry
  call void @_ZNSaIcEC1Ev(ptr noundef nonnull align 1 dereferenceable(1) %ref.tmp4) #10
  %call.i6 = call noundef ptr @_ZNSt7__cxx1112basic_stringIcSt11char_traitsIcESaIcEE13_M_local_dataEv(ptr noundef nonnull align 8 dereferenceable(32) %agg.result) #10
  call void @_ZNSt7__cxx1112basic_stringIcSt11char_traitsIcESaIcEE12_Alloc_hiderC1EPcRKS3_(ptr noundef nonnull align 8 dereferenceable(8) %agg.result, ptr noundef %call.i6, ptr noundef nonnull align 1 dereferenceable(1) %ref.tmp4) #10
  call void @_ZNSt7__cxx1112basic_stringIcSt11char_traitsIcESaIcEE12_M_constructIPKcEEvT_S8_St20forward_iterator_tag(ptr noundef nonnull align 8 dereferenceable(32) %agg.result, ptr noundef nonnull @.str.7, ptr noundef nonnull getelementptr inbounds ([2 x i8], ptr @.str.7, i64 0, i64 1))
  call void @_ZNSaIcED1Ev(ptr noundef nonnull align 1 dereferenceable(1) %ref.tmp4) #10
  br label %return

sw.default:                                       ; preds = %fpclassify_not_nan.i
  call void @_ZNSt7__cxx1119basic_ostringstreamIcSt11char_traitsIcESaIcEEC1Ev(ptr noundef nonnull align 8 dereferenceable(112) %stream) #10
  %vtable = load ptr, ptr %stream, align 8
  %vbase.offset.ptr = getelementptr i8, ptr %vtable, i64 -24
  %vbase.offset = load i64, ptr %vbase.offset.ptr, align 8
  %add.ptr = getelementptr inbounds i8, ptr %stream, i64 %vbase.offset
  %call5 = call noundef nonnull align 8 dereferenceable(8) ptr @_ZNSt6locale7classicEv() #10
  call void @_ZNSt9basic_iosIcSt11char_traitsIcEE5imbueERKSt6locale(ptr nonnull sret(%"class.std::locale") align 8 %agg.tmp.ensured, ptr noundef nonnull align 8 dereferenceable(264) %add.ptr, ptr noundef nonnull align 8 dereferenceable(8) %call5) #10
  call void @_ZNSt6localeD1Ev(ptr noundef nonnull align 8 dereferenceable(8) %agg.tmp.ensured) #10
  %call6 = call noundef nonnull align 8 dereferenceable(8) ptr @_ZNSolsEd(ptr noundef nonnull align 8 dereferenceable(8) %stream, double noundef %v) #10
  call void @_ZNKSt7__cxx1119basic_ostringstreamIcSt11char_traitsIcESaIcEE3strEv(ptr sret(%"class.std::__cxx11::basic_string") align 8 %agg.result, ptr noundef nonnull align 8 dereferenceable(112) %stream) #10
  call void @_ZNSt7__cxx1119basic_ostringstreamIcSt11char_traitsIcESaIcEED1Ev(ptr noundef nonnull align 8 dereferenceable(112) %stream) #10
  br label %return

return:                                           ; preds = %sw.default, %sw.bb3, %sw.bb1, %sw.bb
  ret void
}